; Function Attrs: nounwind uwtable
define dso_local void @add_head_to_pending(ptr noundef %0) local_unnamed_addr #2 {
  %2 = alloca %struct.object_id, align 4
  call void @llvm.lifetime.start.p0(i64 36, ptr nonnull %2) #26
  %3 = load ptr, ptr @the_repository, align 8, !tbaa !71
  %4 = call i32 @repo_get_oid(ptr noundef %3, ptr noundef nonnull @.str.1, ptr noundef nonnull %2) #26
  %.not = icmp eq i32 %4, 0
  br i1 %.not, label %5, label %10

5:                                                ; preds = %1
  %6 = getelementptr inbounds nuw i8, ptr %0, i64 24
  %7 = load ptr, ptr %6, align 8, !tbaa !73
  %8 = call ptr @parse_object(ptr noundef %7, ptr noundef nonnull %2) #26
  %.not4 = icmp eq ptr %8, null
  br i1 %.not4, label %10, label %9

9:                                                ; preds = %5
  call fastcc void @add_pending_object_with_path(ptr noundef nonnull %0, ptr noundef nonnull %8, ptr noundef nonnull @.str.1, i32 noundef 12288, ptr noundef null)
  br label %10

10:                                               ; preds = %5, %1, %9
  call void @llvm.lifetime.end.p0(i64 36, ptr nonnull %2) #26
  ret void
}